target datalayout = "e-m:e-p270:32:32-p271:32:32-p272:64:64-i64:64-i128:128-f80:128-n8:16:32:64-S128"
target triple = "x86_64-pc-linux-gnu"

%struct.ossl_cmp_msg_st = type { ptr, ptr, ptr, ptr, ptr, ptr }
%struct.ossl_cmp_pkibody_st = type { i32, %union.anon }
%union.anon = type { ptr }
%struct.ossl_cmp_pollreq_st = type { ptr }

@.str = private unnamed_addr constant [32 x i8] c"../openssl/crypto/cmp/cmp_msg.c\00", align 1
@__func__.ossl_cmp_pollReq_new = private unnamed_addr constant [21 x i8] c"ossl_cmp_pollReq_new\00", align 1

; Function Attrs: nounwind uwtable
define void @OSSL_CMP_MSG_free(ptr noundef %0) #0 {
  %2 = alloca ptr, align 8
  store ptr %0, ptr %2, align 8, !tbaa !10
  %3 = load ptr, ptr %2, align 8, !tbaa !10
  %4 = call ptr @OSSL_CMP_MSG_it()
  call void @ASN1_item_free(ptr noundef %3, ptr noundef %4)
  ret void
}

; Function Attrs: inlinehint nounwind uwtable
define internal i32 @sk_OSSL_CMP_POLLREQ_push(ptr noundef %0, ptr noundef %1) #4 {
  %3 = alloca ptr, align 8
  %4 = alloca ptr, align 8
  store ptr %0, ptr %3, align 8, !tbaa !162
  store ptr %1, ptr %4, align 8, !tbaa !158
  %5 = load ptr, ptr %3, align 8, !tbaa !162
  %6 = load ptr, ptr %4, align 8, !tbaa !158
  %7 = call i32 @OPENSSL_sk_push(ptr noundef %5, ptr noundef %6)
  ret i32 %7
}

; Function Attrs: nounwind uwtable
define ptr @ossl_cmp_pollReq_new(ptr noundef %0, i32 noundef %1) #0 {
  %3 = alloca ptr, align 8
  %4 = alloca ptr, align 8
  %5 = alloca i32, align 4
  %6 = alloca ptr, align 8
  %7 = alloca ptr, align 8
  %8 = alloca i32, align 4
  store ptr %0, ptr %4, align 8, !tbaa !34
  store i32 %1, ptr %5, align 4, !tbaa !20
  call void @llvm.lifetime.start.p0(i64 8, ptr %6) #6
  store ptr null, ptr %6, align 8, !tbaa !10
  call void @llvm.lifetime.start.p0(i64 8, ptr %7) #6
  store ptr null, ptr %7, align 8, !tbaa !158
  %9 = load ptr, ptr %4, align 8, !tbaa !34
  %10 = icmp ne ptr %9, null
  %11 = zext i1 %10 to i32
  %12 = icmp ne i32 %11, 0
  %13 = xor i1 %12, true
  %14 = xor i1 %13, true
  %15 = zext i1 %14 to i32
  %16 = sext i32 %15 to i64
  %17 = call i64 @llvm.expect.i64(i64 %16, i64 1)
  %18 = icmp ne i64 %17, 0
  br i1 %18, label %20, label %19

19:                                               ; preds = %2
  store ptr null, ptr %3, align 8
  store i32 1, ptr %8, align 4
  br label %57

20:                                               ; preds = %2
  %21 = load ptr, ptr %4, align 8, !tbaa !34
  %22 = call ptr @ossl_cmp_msg_create(ptr noundef %21, i32 noundef 25)
  store ptr %22, ptr %6, align 8, !tbaa !10
  %23 = icmp eq ptr %22, null
  br i1 %23, label %24, label %25

24:                                               ; preds = %20
  br label %54

25:                                               ; preds = %20
  %26 = call ptr @OSSL_CMP_POLLREQ_new()
  store ptr %26, ptr %7, align 8, !tbaa !158
  %27 = icmp eq ptr %26, null
  br i1 %27, label %45, label %28

28:                                               ; preds = %25
  %29 = load ptr, ptr %7, align 8, !tbaa !158
  %30 = getelementptr inbounds nuw %struct.ossl_cmp_pollreq_st, ptr %29, i32 0, i32 0
  %31 = load ptr, ptr %30, align 8, !tbaa !160
  %32 = load i32, ptr %5, align 4, !tbaa !20
  %33 = sext i32 %32 to i64
  %34 = call i32 @ASN1_INTEGER_set(ptr noundef %31, i64 noundef %33)
  %35 = icmp ne i32 %34, 0
  br i1 %35, label %36, label %45

36:                                               ; preds = %28
  %37 = load ptr, ptr %6, align 8, !tbaa !10
  %38 = getelementptr inbounds nuw %struct.ossl_cmp_msg_st, ptr %37, i32 0, i32 1
  %39 = load ptr, ptr %38, align 8, !tbaa !22
  %40 = getelementptr inbounds nuw %struct.ossl_cmp_pkibody_st, ptr %39, i32 0, i32 1
  %41 = load ptr, ptr %40, align 8, !tbaa !25
  %42 = load ptr, ptr %7, align 8, !tbaa !158
  %43 = call i32 @sk_OSSL_CMP_POLLREQ_push(ptr noundef %41, ptr noundef %42)
  %44 = icmp ne i32 %43, 0
  br i1 %44, label %46, label %45

45:                                               ; preds = %36, %28, %25
  br label %54

46:                                               ; preds = %36
  store ptr null, ptr %7, align 8, !tbaa !158
  %47 = load ptr, ptr %4, align 8, !tbaa !34
  %48 = load ptr, ptr %6, align 8, !tbaa !10
  %49 = call i32 @ossl_cmp_msg_protect(ptr noundef %47, ptr noundef %48)
  %50 = icmp ne i32 %49, 0
  br i1 %50, label %52, label %51

51:                                               ; preds = %46
  br label %54

52:                                               ; preds = %46
  %53 = load ptr, ptr %6, align 8, !tbaa !10
  store ptr %53, ptr %3, align 8
  store i32 1, ptr %8, align 4
  br label %57

54:                                               ; preds = %51, %45, %24
  call void @ERR_new()
  call void @ERR_set_debug(ptr noundef @.str, i32 noundef 956, ptr noundef @__func__.ossl_cmp_pollReq_new)
  call void (i32, i32, ptr, ...) @ERR_set_error(i32 noundef 58, i32 noundef 124, ptr noundef null)
  %55 = load ptr, ptr %7, align 8, !tbaa !158
  call void @OSSL_CMP_POLLREQ_free(ptr noundef %55)
  %56 = load ptr, ptr %6, align 8, !tbaa !10
  call void @OSSL_CMP_MSG_free(ptr noundef %56)
  store ptr null, ptr %3, align 8
  store i32 1, ptr %8, align 4
  br label %57

57:                                               ; preds = %54, %52, %19
  call void @llvm.lifetime.end.p0(i64 8, ptr %7) #6
  call void @llvm.lifetime.end.p0(i64 8, ptr %6) #6
  %58 = load ptr, ptr %3, align 8
  ret ptr %58
}