; Function Attrs: nounwind uwtable
define ptr @ossl_cmp_pollReq_new(ptr noundef %0, i32 noundef %1) local_unnamed_addr #0 {
  %.not = icmp eq ptr %0, null
  br i1 %.not, label %23, label %3, !prof !18

3:                                                ; preds = %2
  %4 = tail call ptr @ossl_cmp_msg_create(ptr noundef nonnull %0, i32 noundef 25)
  %5 = icmp eq ptr %4, null
  br i1 %5, label %21, label %6

6:                                                ; preds = %3
  %7 = tail call ptr @OSSL_CMP_POLLREQ_new() #7
  %8 = icmp eq ptr %7, null
  br i1 %8, label %21, label %9

9:                                                ; preds = %6
  %10 = load ptr, ptr %7, align 8, !tbaa !106
  %11 = sext i32 %1 to i64
  %12 = tail call i32 @ASN1_INTEGER_set(ptr noundef %10, i64 noundef %11) #7
  %.not15 = icmp eq i32 %12, 0
  br i1 %.not15, label %21, label %13

13:                                               ; preds = %9
  %14 = getelementptr inbounds nuw i8, ptr %4, i64 8
  %15 = load ptr, ptr %14, align 8, !tbaa !17
  %16 = getelementptr inbounds nuw i8, ptr %15, i64 8
  %17 = load ptr, ptr %16, align 8, !tbaa !22
  %18 = tail call i32 @OPENSSL_sk_push(ptr noundef %17, ptr noundef nonnull %7) #7
  %.not16 = icmp eq i32 %18, 0
  br i1 %.not16, label %21, label %19

19:                                               ; preds = %13
  %20 = tail call i32 @ossl_cmp_msg_protect(ptr noundef nonnull %0, ptr noundef nonnull %4) #7
  %.not17 = icmp eq i32 %20, 0
  br i1 %.not17, label %21, label %23

21:                                               ; preds = %19, %6, %9, %13, %3
  %.0 = phi ptr [ null, %3 ], [ null, %6 ], [ null, %19 ], [ %7, %13 ], [ %7, %9 ]
  tail call void @ERR_new() #7
  tail call void @ERR_set_debug(ptr noundef nonnull @.str, i32 noundef 956, ptr noundef nonnull @__func__.ossl_cmp_pollReq_new) #7
  tail call void (i32, i32, ptr, ...) @ERR_set_error(i32 noundef 58, i32 noundef 124, ptr noundef null) #7
  tail call void @OSSL_CMP_POLLREQ_free(ptr noundef %.0) #7
  %22 = tail call ptr @OSSL_CMP_MSG_it() #7
  tail call void @ASN1_item_free(ptr noundef %4, ptr noundef %22) #7
  br label %23

23:                                               ; preds = %19, %2, %21
  %.011 = phi ptr [ null, %21 ], [ null, %2 ], [ %4, %19 ]
  ret ptr %.011
}